	.file	"vs_vplic.c"
	.option nopic
	.text
.Ltext0:
	.cfi_sections	.debug_frame
	.align	2
	.globl	emu_plic_basic
	.type	emu_plic_basic, @function
emu_plic_basic:
.LFB1:
	.file 1 "virt/vs_vplic.c"
	.loc 1 10 1
	.cfi_startproc
	addi	sp,sp,-48
	.cfi_def_cfa_offset 48
	sd	ra,40(sp)
	sd	s0,32(sp)
	.cfi_offset 1, -8
	.cfi_offset 8, -16
	addi	s0,sp,48
	.cfi_def_cfa 8, 0
	sd	a0,-40(s0)
	.loc 1 11 16
	ld	a5,-40(s0)
	ld	a5,8(a5)
	sd	a5,-24(s0)
	.loc 1 12 18
	ld	a5,-24(s0)
	srli	a5,a5,12
	.loc 1 12 25
	sext.w	a5,a5
	.loc 1 12 6
	andi	a5,a5,3
	sw	a5,-28(s0)
	.loc 1 14 2
	lw	a5,-28(s0)
	sext.w	a4,a5
	li	a5,2
	beq	a4,a5,.L2
	lw	a5,-28(s0)
	sext.w	a4,a5
	li	a5,2
	bgt	a4,a5,.L3
	lw	a5,-28(s0)
	sext.w	a5,a5
	beqz	a5,.L4
	lw	a5,-28(s0)
	sext.w	a4,a5
	li	a5,1
	beq	a4,a5,.L5
	j	.L3
.L4:
	.loc 1 16 3
	ld	a0,-40(s0)
	call	emu_mmio_rw_reg32
	.loc 1 17 3
	j	.L3
.L5:
	.loc 1 19 3
	ld	a0,-40(s0)
	call	emu_mmio_ro_reg32
	.loc 1 20 3
	j	.L3
.L2:
	.loc 1 22 3
	ld	a0,-40(s0)
	call	emu_mmio_rw_reg32
	.loc 1 23 3
	nop
.L3:
	.loc 1 26 9
	li	a5,0
	.loc 1 27 1
	mv	a0,a5
	ld	ra,40(sp)
	.cfi_restore 1
	ld	s0,32(sp)
	.cfi_restore 8
	.cfi_def_cfa 2, 48
	addi	sp,sp,48
	.cfi_def_cfa_offset 0
	jr	ra
	.cfi_endproc
.LFE1:
	.size	emu_plic_basic, .-emu_plic_basic
	.align	2
	.type	emu_mmio_plic_claim, @function
emu_mmio_plic_claim:
.LFB2:
	.loc 1 30 1
	.cfi_startproc
	addi	sp,sp,-32
	.cfi_def_cfa_offset 32
	sd	ra,24(sp)
	sd	s0,16(sp)
	.cfi_offset 1, -8
	.cfi_offset 8, -16
	addi	s0,sp,32
	.cfi_def_cfa 8, 0
	sd	a0,-24(s0)
	.loc 1 33 14
	ld	a5,-24(s0)
	lw	a5,16(a5)
	.loc 1 33 5
	beqz	a5,.L8
	.loc 1 34 10
	lla	a5,vhwirq
	sw	zero,0(a5)
	.loc 1 38 1
	j	.L10
.L8:
	.loc 1 36 3
	ld	a5,-24(s0)
	ld	a4,0(a5)
	ld	a5,-24(s0)
	lw	a3,28(a5)
	lla	a5,vhwirq
	lw	a5,0(a5)
	mv	a2,a5
	mv	a1,a3
	mv	a0,a4
	call	emul_writereg
.L10:
	.loc 1 38 1
	nop
	ld	ra,24(sp)
	.cfi_restore 1
	ld	s0,16(sp)
	.cfi_restore 8
	.cfi_def_cfa 2, 32
	addi	sp,sp,32
	.cfi_def_cfa_offset 0
	jr	ra
	.cfi_endproc
.LFE2:
	.size	emu_mmio_plic_claim, .-emu_mmio_plic_claim
	.align	2
	.type	emu_plic_claim, @function
emu_plic_claim:
.LFB3:
	.loc 1 41 1
	.cfi_startproc
	addi	sp,sp,-48
	.cfi_def_cfa_offset 48
	sd	ra,40(sp)
	sd	s0,32(sp)
	.cfi_offset 1, -8
	.cfi_offset 8, -16
	addi	s0,sp,48
	.cfi_def_cfa 8, 0
	sd	a0,-40(s0)
	.loc 1 42 16
	ld	a5,-40(s0)
	ld	a5,8(a5)
	sd	a5,-24(s0)
	.loc 1 43 17
	ld	a5,-24(s0)
	sext.w	a5,a5
	.loc 1 43 6
	andi	a5,a5,15
	sw	a5,-28(s0)
	.loc 1 45 2
	lw	a5,-28(s0)
	sext.w	a5,a5
	beqz	a5,.L12
	lw	a5,-28(s0)
	sext.w	a4,a5
	li	a5,4
	beq	a4,a5,.L13
	.loc 1 53 1
	j	.L15
.L12:
	.loc 1 47 3
	ld	a0,-40(s0)
	call	emu_mmio_rw_reg32
	.loc 1 48 3
	j	.L14
.L13:
	.loc 1 50 3
	ld	a0,-40(s0)
	call	emu_mmio_plic_claim
	.loc 1 51 3
	nop
.L14:
.L15:
	.loc 1 53 1
	nop
	ld	ra,40(sp)
	.cfi_restore 1
	ld	s0,32(sp)
	.cfi_restore 8
	.cfi_def_cfa 2, 48
	addi	sp,sp,48
	.cfi_def_cfa_offset 0
	jr	ra
	.cfi_endproc
.LFE3:
	.size	emu_plic_claim, .-emu_plic_claim
	.align	2
	.globl	emu_plic
	.type	emu_plic, @function
emu_plic:
.LFB4:
	.loc 1 56 1
	.cfi_startproc
	addi	sp,sp,-32
	.cfi_def_cfa_offset 32
	sd	ra,24(sp)
	sd	s0,16(sp)
	.cfi_offset 1, -8
	.cfi_offset 8, -16
	addi	s0,sp,32
	.cfi_def_cfa 8, 0
	sd	a0,-24(s0)
	.loc 1 57 14
	ld	a5,-24(s0)
	ld	a4,8(a5)
	.loc 1 57 5
	li	a5,203423744
	bleu	a4,a5,.L17
	.loc 1 58 3
	ld	a0,-24(s0)
	call	emu_plic_claim
	j	.L18
.L17:
	.loc 1 60 3
	ld	a0,-24(s0)
	call	emu_plic_basic
.L18:
	.loc 1 62 9
	li	a5,0
	.loc 1 63 1
	mv	a0,a5
	ld	ra,24(sp)
	.cfi_restore 1
	ld	s0,16(sp)
	.cfi_restore 8
	.cfi_def_cfa 2, 32
	addi	sp,sp,32
	.cfi_def_cfa_offset 0
	jr	ra
	.cfi_endproc
.LFE4:
	.size	emu_plic, .-emu_plic
.Letext0:
	.file 2 "include/virt.h"
	.file 3 "include/asm/ptregs.h"
	.section	.note.GNU-stack,"",@progbits
