	.file	"fs.c"
	.option nopic
	.text
.Ltext0:
	.cfi_sections	.debug_frame
	.section	.rodata
	.align	3
.LC0:
	.string	"%s\n"
	.text
	.align	2
	.globl	sys_open
	.type	sys_open, @function
sys_open:
.LFB0:
	.file 1 "src/fs.c"
	.loc 1 5 1
	.cfi_startproc
	addi	sp,sp,-32
	.cfi_def_cfa_offset 32
	sd	ra,24(sp)
	sd	s0,16(sp)
	.cfi_offset 1, -8
	.cfi_offset 8, -16
	addi	s0,sp,32
	.cfi_def_cfa 8, 0
	sd	a0,-24(s0)
	mv	a5,a1
	mv	a4,a2
	sw	a5,-28(s0)
	mv	a5,a4
	sw	a5,-32(s0)
	.loc 1 6 2
	lla	a1,__func__.1524
	lla	a0,.LC0
	call	printk
	.loc 1 8 9
	li	a5,0
	.loc 1 9 1
	mv	a0,a5
	ld	ra,24(sp)
	.cfi_restore 1
	ld	s0,16(sp)
	.cfi_restore 8
	.cfi_def_cfa 2, 32
	addi	sp,sp,32
	.cfi_def_cfa_offset 0
	jr	ra
	.cfi_endproc
.LFE0:
	.size	sys_open, .-sys_open
	.align	2
	.globl	sys_close
	.type	sys_close, @function
sys_close:
.LFB1:
	.loc 1 12 1
	.cfi_startproc
	addi	sp,sp,-32
	.cfi_def_cfa_offset 32
	sd	ra,24(sp)
	sd	s0,16(sp)
	.cfi_offset 1, -8
	.cfi_offset 8, -16
	addi	s0,sp,32
	.cfi_def_cfa 8, 0
	mv	a5,a0
	sw	a5,-20(s0)
	.loc 1 13 2
	lla	a1,__func__.1528
	lla	a0,.LC0
	call	printk
	.loc 1 15 9
	li	a5,0
	.loc 1 16 1
	mv	a0,a5
	ld	ra,24(sp)
	.cfi_restore 1
	ld	s0,16(sp)
	.cfi_restore 8
	.cfi_def_cfa 2, 32
	addi	sp,sp,32
	.cfi_def_cfa_offset 0
	jr	ra
	.cfi_endproc
.LFE1:
	.size	sys_close, .-sys_close
	.align	2
	.globl	sys_read
	.type	sys_read, @function
sys_read:
.LFB2:
	.loc 1 19 1
	.cfi_startproc
	addi	sp,sp,-32
	.cfi_def_cfa_offset 32
	sd	ra,24(sp)
	sd	s0,16(sp)
	.cfi_offset 1, -8
	.cfi_offset 8, -16
	addi	s0,sp,32
	.cfi_def_cfa 8, 0
	mv	a5,a0
	sd	a1,-32(s0)
	mv	a4,a2
	sw	a5,-20(s0)
	mv	a5,a4
	sw	a5,-24(s0)
	.loc 1 20 2
	lla	a1,__func__.1534
	lla	a0,.LC0
	call	printk
	.loc 1 22 9
	li	a5,0
	.loc 1 23 1
	mv	a0,a5
	ld	ra,24(sp)
	.cfi_restore 1
	ld	s0,16(sp)
	.cfi_restore 8
	.cfi_def_cfa 2, 32
	addi	sp,sp,32
	.cfi_def_cfa_offset 0
	jr	ra
	.cfi_endproc
.LFE2:
	.size	sys_read, .-sys_read
	.align	2
	.globl	sys_write
	.type	sys_write, @function
sys_write:
.LFB3:
	.loc 1 26 1
	.cfi_startproc
	addi	sp,sp,-32
	.cfi_def_cfa_offset 32
	sd	ra,24(sp)
	sd	s0,16(sp)
	.cfi_offset 1, -8
	.cfi_offset 8, -16
	addi	s0,sp,32
	.cfi_def_cfa 8, 0
	mv	a5,a0
	sd	a1,-32(s0)
	mv	a4,a2
	sw	a5,-20(s0)
	mv	a5,a4
	sw	a5,-24(s0)
	.loc 1 27 2
	lla	a1,__func__.1540
	lla	a0,.LC0
	call	printk
	.loc 1 29 9
	li	a5,0
	.loc 1 30 1
	mv	a0,a5
	ld	ra,24(sp)
	.cfi_restore 1
	ld	s0,16(sp)
	.cfi_restore 8
	.cfi_def_cfa 2, 32
	addi	sp,sp,32
	.cfi_def_cfa_offset 0
	jr	ra
	.cfi_endproc
.LFE3:
	.size	sys_write, .-sys_write
	.section	.rodata
	.align	3
	.type	__func__.1524, @object
	.size	__func__.1524, 9
__func__.1524:
	.string	"sys_open"
	.align	3
	.type	__func__.1528, @object
	.size	__func__.1528, 10
__func__.1528:
	.string	"sys_close"
	.align	3
	.type	__func__.1534, @object
	.size	__func__.1534, 9
__func__.1534:
	.string	"sys_read"
	.align	3
	.type	__func__.1540, @object
	.size	__func__.1540, 10
__func__.1540:
	.string	"sys_write"
	.text
.Letext0:
	.file 2 "include/type.h"
	.section	.note.GNU-stack,"",@progbits
