	.file	"kernel.c"
	.option nopic
	.text
.Ltext0:
	.cfi_sections	.debug_frame
	.align	2
	.type	sbi_putchar, @function
sbi_putchar:
.LFB2:
	.file 1 "include/asm/sbi.h"
	.loc 1 38 1
	.cfi_startproc
	addi	sp,sp,-32
	.cfi_def_cfa_offset 32
	sd	s0,24(sp)
	.cfi_offset 8, -8
	addi	s0,sp,32
	.cfi_def_cfa 8, 0
	mv	a5,a0
	sb	a5,-17(s0)
.LBB2:
	.loc 1 39 44
	lbu	a5,-17(s0)
	.loc 1 39 28
	mv	a0,a5
	.loc 1 39 87
	li	a1,0
	.loc 1 39 146
	li	a2,0
	.loc 1 39 205
	li	a7,1
	.loc 1 39 243
#APP
# 39 "include/asm/sbi.h" 1
	ecall
# 0 "" 2
#NO_APP
.LBE2:
	.loc 1 40 1
	nop
	ld	s0,24(sp)
	.cfi_restore 8
	.cfi_def_cfa 2, 32
	addi	sp,sp,32
	.cfi_def_cfa_offset 0
	jr	ra
	.cfi_endproc
.LFE2:
	.size	sbi_putchar, .-sbi_putchar
	.align	2
	.type	sbi_put_string, @function
sbi_put_string:
.LFB3:
	.loc 1 43 1
	.cfi_startproc
	addi	sp,sp,-48
	.cfi_def_cfa_offset 48
	sd	ra,40(sp)
	sd	s0,32(sp)
	.cfi_offset 1, -8
	.cfi_offset 8, -16
	addi	s0,sp,48
	.cfi_def_cfa 8, 0
	sd	a0,-40(s0)
	.loc 1 46 9
	sw	zero,-20(s0)
	.loc 1 46 2
	j	.L3
.L4:
	.loc 1 47 25 discriminator 3
	lw	a5,-20(s0)
	ld	a4,-40(s0)
	add	a5,a4,a5
	.loc 1 47 3 discriminator 3
	lbu	a5,0(a5)
	mv	a0,a5
	call	sbi_putchar
	.loc 1 46 31 discriminator 3
	lw	a5,-20(s0)
	addiw	a5,a5,1
	sw	a5,-20(s0)
.L3:
	.loc 1 46 17 discriminator 1
	lw	a5,-20(s0)
	ld	a4,-40(s0)
	add	a5,a4,a5
	lbu	a5,0(a5)
	.loc 1 46 2 discriminator 1
	bnez	a5,.L4
	.loc 1 48 1
	nop
	nop
	ld	ra,40(sp)
	.cfi_restore 1
	ld	s0,32(sp)
	.cfi_restore 8
	.cfi_def_cfa 2, 48
	addi	sp,sp,48
	.cfi_def_cfa_offset 0
	jr	ra
	.cfi_endproc
.LFE3:
	.size	sbi_put_string, .-sbi_put_string
	.align	2
	.type	get_current, @function
get_current:
.LFB38:
	.file 2 "include/asm/current.h"
	.loc 2 5 1
	.cfi_startproc
	addi	sp,sp,-16
	.cfi_def_cfa_offset 16
	sd	s0,8(sp)
	.cfi_offset 8, -8
	addi	s0,sp,16
	.cfi_def_cfa 8, 0
	.loc 2 7 9
	mv	a5,tp
	.loc 2 8 1
	mv	a0,a5
	ld	s0,8(sp)
	.cfi_restore 8
	.cfi_def_cfa 2, 16
	addi	sp,sp,16
	.cfi_def_cfa_offset 0
	jr	ra
	.cfi_endproc
.LFE38:
	.size	get_current, .-get_current
	.section	.rodata
	.align	3
.LC0:
	.string	"<0x%lx> %s\n"
	.text
	.align	2
	.type	print_func_name, @function
print_func_name:
.LFB43:
	.file 3 "src/kernel.c"
	.loc 3 37 1
	.cfi_startproc
	addi	sp,sp,-64
	.cfi_def_cfa_offset 64
	sd	ra,56(sp)
	sd	s0,48(sp)
	.cfi_offset 1, -8
	.cfi_offset 8, -16
	addi	s0,sp,64
	.cfi_def_cfa 8, 0
	sd	a0,-56(s0)
	.loc 3 41 12
	sw	zero,-20(s0)
	.loc 3 41 5
	j	.L8
.L11:
	.loc 3 42 30
	lla	a4,func_addr
	lw	a5,-20(s0)
	slli	a5,a5,3
	add	a5,a4,a5
	ld	a5,0(a5)
	.loc 3 42 12
	ld	a4,-56(s0)
	beq	a4,a5,.L18
	.loc 3 41 37 discriminator 2
	lw	a5,-20(s0)
	addiw	a5,a5,1
	sw	a5,-20(s0)
.L8:
	.loc 3 41 19 discriminator 1
	lw	a4,-20(s0)
	lla	a5,func_num_syms
	ld	a5,0(a5)
	.loc 3 41 5 discriminator 1
	bltu	a4,a5,.L11
	.loc 3 46 12
	li	a5,0
	j	.L12
.L18:
	.loc 3 43 13
	nop
.L10:
	.loc 3 49 7
	lla	a5,func_string
	sd	a5,-32(s0)
	.loc 3 51 8
	lw	a5,-20(s0)
	sext.w	a5,a5
	bnez	a5,.L13
	.loc 3 52 16
	ld	a5,-32(s0)
	sd	a5,-40(s0)
	.loc 3 53 9
	j	.L14
.L13:
	.loc 3 57 10
	ld	a5,-32(s0)
	addi	a5,a5,1
	sd	a5,-32(s0)
	.loc 3 59 13
	ld	a5,-32(s0)
	lbu	a5,0(a5)
	.loc 3 59 12
	bnez	a5,.L15
	.loc 3 60 14
	lw	a5,-20(s0)
	addiw	a5,a5,-1
	sw	a5,-20(s0)
.L15:
	.loc 3 62 12
	lw	a5,-20(s0)
	sext.w	a5,a5
	bnez	a5,.L13
	.loc 3 63 14
	ld	a5,-32(s0)
	addi	a5,a5,1
	sd	a5,-32(s0)
	.loc 3 64 20
	ld	a5,-32(s0)
	sd	a5,-40(s0)
.L14:
	.loc 3 70 5
	ld	a2,-40(s0)
	ld	a1,-56(s0)
	lla	a0,.LC0
	call	printk
	.loc 3 72 12
	li	a5,0
.L12:
	.loc 3 73 1
	mv	a0,a5
	ld	ra,56(sp)
	.cfi_restore 1
	ld	s0,48(sp)
	.cfi_restore 8
	.cfi_def_cfa 2, 64
	addi	sp,sp,64
	.cfi_def_cfa_offset 0
	jr	ra
	.cfi_endproc
.LFE43:
	.size	print_func_name, .-print_func_name
	.section	.rodata
	.align	3
.LC1:
	.string	"BenOS image layout:\n"
	.align	3
.LC2:
	.string	"  .text.boot: 0x%08lx - 0x%08lx (%6ld B)\n"
	.align	3
.LC3:
	.string	"       .text: 0x%08lx - 0x%08lx (%6ld B)\n"
	.align	3
.LC4:
	.string	"     .rodata: 0x%08lx - 0x%08lx (%6ld B)\n"
	.align	3
.LC5:
	.string	"       .data: 0x%08lx - 0x%08lx (%6ld B)\n"
	.align	3
.LC6:
	.string	"        .bss: 0x%08lx - 0x%08lx (%6ld B)\n"
	.text
	.align	2
	.type	print_mem, @function
print_mem:
.LFB47:
	.loc 3 100 1
	.cfi_startproc
	addi	sp,sp,-16
	.cfi_def_cfa_offset 16
	sd	ra,8(sp)
	sd	s0,0(sp)
	.cfi_offset 1, -8
	.cfi_offset 8, -16
	addi	s0,sp,16
	.cfi_def_cfa 8, 0
	.loc 3 101 5
	lla	a0,.LC1
	call	printk
	.loc 3 102 5
	lla	a1,_text_boot
	lla	a2,_etext_boot
	.loc 3 104 41
	lla	a4,_etext_boot
	lla	a5,_text_boot
	sub	a5,a4,a5
	.loc 3 102 5
	mv	a3,a5
	lla	a0,.LC2
	call	printk
	.loc 3 105 5
	lla	a1,_text
	lla	a2,_etext
	.loc 3 107 36
	lla	a4,_etext
	lla	a5,_text
	sub	a5,a4,a5
	.loc 3 105 5
	mv	a3,a5
	lla	a0,.LC3
	call	printk
	.loc 3 108 5
	lla	a1,_rodata
	lla	a2,_erodata
	.loc 3 110 38
	lla	a4,_erodata
	lla	a5,_rodata
	sub	a5,a4,a5
	.loc 3 108 5
	mv	a3,a5
	lla	a0,.LC4
	call	printk
	.loc 3 111 5
	lla	a1,_data
	lla	a2,_edata
	.loc 3 113 36
	lla	a4,_edata
	lla	a5,_data
	sub	a5,a4,a5
	.loc 3 111 5
	mv	a3,a5
	lla	a0,.LC5
	call	printk
	.loc 3 114 5
	lla	a1,_bss
	lla	a2,_ebss
	.loc 3 116 35
	lla	a4,_ebss
	lla	a5,_bss
	sub	a5,a4,a5
	.loc 3 114 5
	mv	a3,a5
	lla	a0,.LC6
	call	printk
	.loc 3 117 1
	nop
	ld	ra,8(sp)
	.cfi_restore 1
	ld	s0,0(sp)
	.cfi_restore 8
	.cfi_def_cfa 2, 16
	addi	sp,sp,16
	.cfi_def_cfa_offset 0
	jr	ra
	.cfi_endproc
.LFE47:
	.size	print_mem, .-print_mem
	.align	2
	.type	clean_bss, @function
clean_bss:
.LFB48:
	.loc 3 120 1
	.cfi_startproc
	addi	sp,sp,-48
	.cfi_def_cfa_offset 48
	sd	ra,40(sp)
	sd	s0,32(sp)
	.cfi_offset 1, -8
	.cfi_offset 8, -16
	addi	s0,sp,48
	.cfi_def_cfa 8, 0
	.loc 3 121 19
	lla	a5,_bss
	sd	a5,-24(s0)
	.loc 3 122 19
	lla	a5,_ebss
	sd	a5,-32(s0)
	.loc 3 123 25
	ld	a5,-32(s0)
	sext.w	a4,a5
	ld	a5,-24(s0)
	sext.w	a5,a5
	.loc 3 123 14
	subw	a5,a4,a5
	sw	a5,-36(s0)
	.loc 3 125 5
	ld	a5,-24(s0)
	lw	a4,-36(s0)
	mv	a2,a4
	li	a1,0
	mv	a0,a5
	call	memset
	.loc 3 126 1
	nop
	ld	ra,40(sp)
	.cfi_restore 1
	ld	s0,32(sp)
	.cfi_restore 8
	.cfi_def_cfa 2, 48
	addi	sp,sp,48
	.cfi_def_cfa_offset 0
	jr	ra
	.cfi_endproc
.LFE48:
	.size	clean_bss, .-clean_bss
	.section	.rodata
	.align	3
.LC7:
	.string	"Welcome RISC-V!\r\n"
	.align	3
.LC8:
	.string	"printk init done\n"
	.align	3
.LC9:
	.string	"trap init done\n"
	.align	3
.LC10:
	.string	"System init done. Preparing to jump to User App...\n"
	.align	3
.LC11:
	.string	"Executing sret to jump to 0x%lx...\n"
	.text
	.align	2
	.globl	kernel_main
	.type	kernel_main, @function
kernel_main:
.LFB49:
	.loc 3 133 1
	.cfi_startproc
	addi	sp,sp,-48
	.cfi_def_cfa_offset 48
	sd	ra,40(sp)
	sd	s0,32(sp)
	.cfi_offset 1, -8
	.cfi_offset 8, -16
	addi	s0,sp,48
	.cfi_def_cfa 8, 0
	.loc 3 135 5
	call	clean_bss
	.loc 3 136 5
	lla	a0,.LC7
	call	sbi_put_string
	.loc 3 145 5
	call	uart_init
	.loc 3 146 5
	lla	a0,putchar
	call	init_printk_done
	.loc 3 147 5
	lla	a0,.LC8
	call	printk
	.loc 3 150 5
	call	trap_init
	.loc 3 151 5
	lla	a0,.LC9
	call	printk
	.loc 3 153 5
	call	print_mem
	.loc 3 157 5
	lla	a0,.LC10
	call	printk
.LBB3:
	.loc 3 161 60
#APP
# 161 "src/kernel.c" 1
	csrr a5, sstatus
# 0 "" 2
#NO_APP
	mv	ra,a5
	.loc 3 161 132
	mv	a5,ra
.LBE3:
	.loc 3 161 19
	sd	a5,-24(s0)
	.loc 3 163 13
	ld	a5,-24(s0)
	andi	a5,a5,-257
	sd	a5,-24(s0)
	.loc 3 165 13
	ld	a5,-24(s0)
	ori	a5,a5,32
	sd	a5,-24(s0)
	.loc 3 167 13
	ld	a4,-24(s0)
	li	a5,-262144
	addi	a5,a5,-1
	and	a5,a4,a5
	sd	a5,-24(s0)
.LBB4:
	.loc 3 169 22
	ld	a5,-24(s0)
	sd	a5,-32(s0)
	.loc 3 169 54
	ld	a5,-32(s0)
#APP
# 169 "src/kernel.c" 1
	csrw sstatus, a5
# 0 "" 2
#NO_APP
.LBE4:
.LBB5:
	.loc 3 172 22
	lla	a5,my_user_app
	sd	a5,-40(s0)
	.loc 3 172 73
	ld	a5,-40(s0)
#APP
# 172 "src/kernel.c" 1
	csrw sepc, a5
# 0 "" 2
#NO_APP
.LBE5:
	.loc 3 174 5
	lla	a5,my_user_app
	mv	a1,a5
	lla	a0,.LC11
	call	printk
	.loc 3 177 5
#APP
# 177 "src/kernel.c" 1
	sret
# 0 "" 2
#NO_APP
.L22:
	.loc 3 180 11 discriminator 1
	j	.L22
	.cfi_endproc
.LFE49:
	.size	kernel_main, .-kernel_main
.Letext0:
	.file 4 "include/asm/processor.h"
	.file 5 "include/list.h"
	.file 6 "include/sched.h"
	.file 7 "include/type.h"
	.section	.note.GNU-stack,"",@progbits
