	.file	"page_alloc.c"
	.option nopic
	.text
.Ltext0:
	.cfi_sections	.debug_frame
	.local	mem_map
	.comm	mem_map,8192,8
	.local	phy_start_address
	.comm	phy_start_address,8,8
	.section	.rodata
	.align	3
.LC0:
	.string	"Memory: %uKB available, %u free pages, phy_start_address=0x%x\n"
	.text
	.align	2
	.globl	mem_init
	.type	mem_init, @function
mem_init:
.LFB23:
	.file 1 "src/page_alloc.c"
	.loc 1 12 1
	.cfi_startproc
	addi	sp,sp,-48
	.cfi_def_cfa_offset 48
	sd	ra,40(sp)
	sd	s0,32(sp)
	.cfi_offset 1, -8
	.cfi_offset 8, -16
	addi	s0,sp,48
	.cfi_def_cfa 8, 0
	sd	a0,-40(s0)
	sd	a1,-48(s0)
	.loc 1 13 16
	sd	zero,-24(s0)
	.loc 1 16 37
	ld	a4,-40(s0)
	li	a5,4096
	addi	a5,a5,-1
	add	a4,a4,a5
	.loc 1 16 12
	li	a5,-4096
	and	a5,a4,a5
	sd	a5,-40(s0)
	.loc 1 17 20
	lla	a5,phy_start_address
	ld	a4,-40(s0)
	sd	a4,0(a5)
	.loc 1 18 10
	ld	a4,-48(s0)
	li	a5,-4096
	and	a5,a4,a5
	sd	a5,-48(s0)
	.loc 1 19 7
	ld	a4,-48(s0)
	ld	a5,-40(s0)
	sub	a5,a4,a5
	sd	a5,-32(s0)
	.loc 1 21 8
	j	.L2
.L3:
	.loc 1 22 16
	ld	a5,-24(s0)
	addi	a5,a5,1
	sd	a5,-24(s0)
	.loc 1 23 13
	ld	a4,-40(s0)
	li	a5,4096
	add	a5,a4,a5
	sd	a5,-40(s0)
.L2:
	.loc 1 21 8
	ld	a4,-40(s0)
	ld	a5,-48(s0)
	bltu	a4,a5,.L3
	.loc 1 26 2
	ld	a5,-32(s0)
	srli	a4,a5,10
	lla	a5,phy_start_address
	ld	a5,0(a5)
	mv	a3,a5
	ld	a2,-24(s0)
	mv	a1,a4
	lla	a0,.LC0
	call	printk
	.loc 1 27 1
	nop
	ld	ra,40(sp)
	.cfi_restore 1
	ld	s0,32(sp)
	.cfi_restore 8
	.cfi_def_cfa 2, 48
	addi	sp,sp,48
	.cfi_def_cfa_offset 0
	jr	ra
	.cfi_endproc
.LFE23:
	.size	mem_init, .-mem_init
	.align	2
	.globl	get_free_page
	.type	get_free_page, @function
get_free_page:
.LFB24:
	.loc 1 30 1
	.cfi_startproc
	addi	sp,sp,-32
	.cfi_def_cfa_offset 32
	sd	s0,24(sp)
	.cfi_offset 8, -8
	addi	s0,sp,32
	.cfi_def_cfa 8, 0
	.loc 1 33 9
	sw	zero,-20(s0)
	.loc 1 33 2
	j	.L5
.L8:
	.loc 1 34 14
	lla	a4,mem_map
	lw	a5,-20(s0)
	slli	a5,a5,1
	add	a5,a4,a5
	lhu	a5,0(a5)
	.loc 1 34 6
	bnez	a5,.L6
	.loc 1 35 15
	lla	a4,mem_map
	lw	a5,-20(s0)
	slli	a5,a5,1
	add	a5,a4,a5
	li	a4,1
	sh	a4,0(a5)
	.loc 1 36 33
	lw	a5,-20(s0)
	slliw	a5,a5,12
	sext.w	a5,a5
	mv	a4,a5
	.loc 1 36 29
	lla	a5,phy_start_address
	ld	a5,0(a5)
	add	a5,a4,a5
	j	.L7
.L6:
	.loc 1 33 52 discriminator 2
	lw	a5,-20(s0)
	addiw	a5,a5,1
	sw	a5,-20(s0)
.L5:
	.loc 1 33 16 discriminator 1
	lw	a5,-20(s0)
	.loc 1 33 2 discriminator 1
	mv	a4,a5
	li	a5,4096
	bltu	a4,a5,.L8
	.loc 1 39 9
	li	a5,0
.L7:
	.loc 1 40 1
	mv	a0,a5
	ld	s0,24(sp)
	.cfi_restore 8
	.cfi_def_cfa 2, 32
	addi	sp,sp,32
	.cfi_def_cfa_offset 0
	jr	ra
	.cfi_endproc
.LFE24:
	.size	get_free_page, .-get_free_page
	.align	2
	.globl	free_page
	.type	free_page, @function
free_page:
.LFB25:
	.loc 1 43 1
	.cfi_startproc
	addi	sp,sp,-32
	.cfi_def_cfa_offset 32
	sd	s0,24(sp)
	.cfi_offset 8, -8
	addi	s0,sp,32
	.cfi_def_cfa 8, 0
	sd	a0,-24(s0)
	.loc 1 44 13
	lla	a5,phy_start_address
	ld	a5,0(a5)
	ld	a4,-24(s0)
	sub	a5,a4,a5
	.loc 1 44 33
	srli	a5,a5,12
	.loc 1 44 45
	lla	a4,mem_map
	slli	a5,a5,1
	add	a5,a4,a5
	sh	zero,0(a5)
	.loc 1 45 1
	nop
	ld	s0,24(sp)
	.cfi_restore 8
	.cfi_def_cfa 2, 32
	addi	sp,sp,32
	.cfi_def_cfa_offset 0
	jr	ra
	.cfi_endproc
.LFE25:
	.size	free_page, .-free_page
.Letext0:
	.section	.note.GNU-stack,"",@progbits
